(dp0
S'max_sentence_word_length'
p1
I2210
sS'word_num'
p2
I42430
sS'user_num'
p3
I2928
sS'max_interaction_length'
p4
I2210
sS'max_sentence_length'
p5
I1
sS'item_num'
p6
I1835
sS'time_bin_number'
p7
I1
sS'interaction_num'
p8
I20473
s.