(dp0
I0
VB002ZBWKDC
p1
sI1
VB001FAK4B4
p2
sI2
VB000BM8RT8
p3
sI3
VB0058WXNOK
p4
sI4
VB0028JQZ5U
p5
sI5
VB002XL2IEA
p6
sI6
VB00032KC3K
p7
sI7
VB000GZPH2U
p8
sI8
VB001CEXQSG
p9
sI9
VB00065L2D8
p10
sI10
VB000C11JJ8
p11
sI11
VB000SXCLIS
p12
sI12
VB00318NVRM
p13
sI13
VB000OQITW6
p14
sI14
VB008JVFK02
p15
sI15
VB000701HEQ
p16
sI16
VB000Q0K5SQ
p17
sI17
VB001GJ3EJS
p18
sI18
VB0007ZG9TO
p19
sI19
VB00APL77NW
p20
sI20
VB000IYDEPG
p21
sI21
VB000GU5IUQ
p22
sI22
VB003U4TL3U
p23
sI23
VB0096J90KW
p24
sI24
VB000MY3ML8
p25
sI25
VB0002SR4AY
p26
sI26
VB00032KC30
p27
sI27
VB000CCID28
p28
sI28
VB000B68V7W
p29
sI29
VB0014E3MSS
p30
sI30
VB0009IQXJ0
p31
sI31
VB001B0VP3E
p32
sI32
VB003YJ47JO
p33
sI33
VB0007LMC1C
p34
sI34
VB001V8PRBM
p35
sI35
VB0002SRGFW
p36
sI36
VB000NPR32U
p37
sI37
VB000OCKJDW
p38
sI38
VB002E1AYW2
p39
sI39
VB000CO9NUW
p40
sI40
VB00032K4VA
p41
sI41
VB00FF1K7BQ
p42
sI42
VB000O5XDOG
p43
sI43
VB0002NUNIO
p44
sI44
VB009OTK094
p45
sI45
VB0006JLW5C
p46
sI46
VB001DRHMRI
p47
sI47
VB0009IBJE4
p48
sI48
VB000B68V90
p49
sI49
VB003RCJB62
p50
sI50
VB00192QSVS
p51
sI51
VB007I75D8W
p52
sI52
VB0002MB80C
p53
sI53
VB0002STTPW
p54
sI54
VB00BRHM8FA
p55
sI55
VB006EH9WUC
p56
sI56
VB003XGYDE2
p57
sI57
VB00067BWBI
p58
sI58
VB00407NK6A
p59
sI59
VB00192MU2Y
p60
sI60
VB000F5DQWY
p61
sI61
VB0022ZF2ZO
p62
sI62
VB00480FIBE
p63
sI63
VB004NSI868
p64
sI64
VB000BUU5YA
p65
sI65
VB004LEYIQ8
p66
sI66
VB00C873Y60
p67
sI67
VB00030BFQA
p68
sI68
VB005JPGTNI
p69
sI69
VB000AME50O
p70
sI70
VB0067ECRP4
p71
sI71
VB0002JMIEK
p72
sI72
VB000BO22NS
p73
sI73
VB00192HPOC
p74
sI74
VB0002U1TXK
p75
sI75
VB002UC2Q0S
p76
sI76
VB000OOZY5S
p77
sI77
VB0015DMNIS
p78
sI78
VB009OBVROY
p79
sI79
VB000BRNF68
p80
sI80
VB008DREON6
p81
sI81
VB002BEI0JQ
p82
sI82
VB000BUU5Y0
p83
sI83
VB00192JFI6
p84
sI84
VB000ALG8LO
p85
sI85
VB000BYB2J8
p86
sI86
VB0002U1TZ8
p87
sI87
VB001ABPKUS
p88
sI88
VB0019COQ6C
p89
sI89
VB000C5UFVM
p90
sI90
VB000SQWVO4
p91
sI91
VB003TPQYPI
p92
sI92
VB00AZMICOY
p93
sI93
VB000AP1MUW
p94
sI94
VB0002RNSNM
p95
sI95
VB0010DZZS8
p96
sI96
VB004SL8568
p97
sI97
VB000COS8FI
p98
sI98
VB001KS6FPA
p99
sI99
VB001KS6FPK
p100
sI100
VB00079FOK0
p101
sI101
VB0032DBQHS
p102
sI102
VB004P9GXG2
p103
sI103
VB000TK3U4O
p104
sI104
VB000E8T80Q
p105
sI105
VB00069CN2I
p106
sI106
VB000A8FMLO
p107
sI107
VB0002V9LAW
p108
sI108
VB000EH4V0Y
p109
sI109
VB00FLSG6V8
p110
sI110
VB000BOC9K4
p111
sI111
VB00062ZJ4O
p112
sI112
VB000760FWU
p113
sI113
VB007V8WBPQ
p114
sI114
VB0009OMYCO
p115
sI115
VB000C32IUK
p116
sI116
VB001D8XA50
p117
sI117
VB0007O8S58
p118
sI118
VB000PWZR4C
p119
sI119
VB000C5WCUE
p120
sI120
VB000K02EDG
p121
sI121
VB003Z4BBSI
p122
sI122
VB000CQFS0O
p123
sI123
VB000HEBR3I
p124
sI124
VB000AA4RWM
p125
sI125
VB000COMXCM
p126
sI126
VB002N5W8Q4
p127
sI127
VB001UJB9AU
p128
sI128
VB001892VAE
p129
sI129
VB000BUQOCM
p130
sI130
VB00JGM7Z5Q
p131
sI131
VB0049MHU9Y
p132
sI132
VB000SQFD4O
p133
sI133
VB0002SRL20
p134
sI134
VB000C5BPFW
p135
sI135
VB000CSGX9C
p136
sI136
VB001GJ3FEC
p137
sI137
VB000AM8BLI
p138
sI138
VB000C9WL6A
p139
sI139
VB003VAYRNM
p140
sI140
VB003814PRM
p141
sI141
VB000701HF0
p142
sI142
VB001CF1A6U
p143
sI143
VB004LQCDOA
p144
sI144
VB001D9FQT2
p145
sI145
VB0013REXSO
p146
sI146
VB001CF4UWG
p147
sI147
VB000DZBP60
p148
sI148
VB002GT78GW
p149
sI149
VB0009IQXM2
p150
sI150
VB002XL2IBS
p151
sI151
VB000EVYGQY
p152
sI152
VB0009IR056
p153
sI153
VB0066A1P98
p154
sI154
VB001O7PNW8
p155
sI155
VB00DKU2V1I
p156
sI156
VB0076KBPNI
p157
sI157
VB00032KC2G
p158
sI158
VB002BC4N5I
p159
sI159
VB007G67JCS
p160
sI160
VB00433SIQI
p161
sI161
VB009X23B2U
p162
sI162
VB00CE75ZQQ
p163
sI163
VB000UVMJBW
p164
sI164
VB001MXTOKQ
p165
sI165
VB000IY60VQ
p166
sI166
VB003POJ1DU
p167
sI167
VB002X1JWTY
p168
sI168
VB003YCGKA0
p169
sI169
VB001G4Z5J0
p170
sI170
VB004APM12G
p171
sI171
VB002J7KCOG
p172
sI172
VB0007898UI
p173
sI173
VB007148MYO
p174
sI174
VB000CINVA6
p175
sI175
VB0024QF4GI
p176
sI176
VB001DRHMMS
p177
sI177
VB00CNA2BV6
p178
sI178
VB000EDUTX6
p179
sI179
VB000CSGWZC
p180
sI180
VB007ZGBLNW
p181
sI181
VB001UJB8T2
p182
sI182
VB000W0RQ8C
p183
sI183
VB00BTGDR9A
p184
sI184
VB0023080RU
p185
sI185
VB001UHHMRG
p186
sI186
VB000HBI9EQ
p187
sI187
VB00480KPH6
p188
sI188
VB0002U1TUS
p189
sI189
VB003DGL24G
p190
sI190
VB00HWIZO6I
p191
sI191
VB0002U2V1Y
p192
sI192
VB000JFJM14
p193
sI193
VB000MSDKMA
p194
sI194
VB004HP2J0S
p195
sI195
VB004UQQYAK
p196
sI196
VB001TFE38A
p197
sI197
VB000ENOPPO
p198
sI198
VB000RFSARI
p199
sI199
VB000BUU5XQ
p200
sI200
VB004UQQS8I
p201
sI201
VB0002UEN1U
p202
sI202
VB0002LBGX2
p203
sI203
VB00DBH8W4K
p204
sI204
VB005JPJMI2
p205
sI205
VB004G5FKO6
p206
sI206
VB000BRFQKQ
p207
sI207
VB000CO9FHS
p208
sI208
VB000FW2MWW
p209
sI209
VB0087XOTWW
p210
sI210
VB001KRYIC8
p211
sI211
VB004HJJOZC
p212
sI212
VB000CQEJF4
p213
sI213
VB000GU24N0
p214
sI214
VB000O3U2UQ
p215
sI215
VB000W0RQCI
p216
sI216
VB000C3YTM0
p217
sI217
VB004BSNNY2
p218
sI218
VB00D7HZ6FC
p219
sI219
VB000BQSIWK
p220
sI220
VB001TJ70ZE
p221
sI221
VB00469L32A
p222
sI222
VB000BPTVTK
p223
sI223
VB001NZQIDE
p224
sI224
VB0024E6U7C
p225
sI225
VB0006O2RV0
p226
sI226
VB002E2WMWG
p227
sI227
VB001VJZWGG
p228
sI228
VB00002243Z
p229
sI229
VB009XR48MM
p230
sI230
VB0008D6NK0
p231
sI231
VB00068AJPM
p232
sI232
VB0022UP8XA
p233
sI233
VB001DRP9K0
p234
sI234
VB000EVWDAK
p235
sI235
VB0010E1M02
p236
sI236
VB00029WSVI
p237
sI237
VB00AZPI0NE
p238
sI238
VB000W0KTMW
p239
sI239
VB000M61JFC
p240
sI240
VB005JVHIZ0
p241
sI241
VB000GZAUQ8
p242
sI242
VB00A1A6PT4
p243
sI243
VB00167Y3ZO
p244
sI244
VB00D8NAD1M
p245
sI245
VB0007ZAJRM
p246
sI246
VB003IOITRG
p247
sI247
VB004L5WLZ2
p248
sI248
VB000BOA9RY
p249
sI249
VB000A0CANA
p250
sI250
VB001DKTG0G
p251
sI251
VB000BOKML2
p252
sI252
VB0021KZFCA
p253
sI253
VB003UM7B98
p254
sI254
VB0046KIABG
p255
sI255
VB00A8MZ2ZS
p256
sI256
VB001P22UUU
p257
sI257
VB0012TYNY2
p258
sI258
VB0002JMLQU
p259
sI259
VB000AS1XYE
p260
sI260
VB00068KU1K
p261
sI261
VB000AP8EQ2
p262
sI262
VB00068KU1A
p263
sI263
VB0006JLU1I
p264
sI264
VB00CSWEJZU
p265
sI265
VB000BR8UAO
p266
sI266
VB000C9R1D8
p267
sI267
VB000BZIFV0
p268
sI268
VB0000AYES4
p269
sI269
VB003UT3S6Q
p270
sI270
VB0009IQZH0
p271
sI271
VB000C9TCUS
p272
sI272
VB000XG8Q0W
p273
sI273
VB000IAIP72
p274
sI274
VB00755JMYS
p275
sI275
VB00074Q2A6
p276
sI276
VB004OK77L2
p277
sI277
VB00353PWAW
p278
sI278
VB007HXYDXI
p279
sI279
VB00513G82U
p280
sI280
VB000BPSW1I
p281
sI281
VB000Q3OTQC
p282
sI282
VB000E8P77O
p283
sI283
VB004804NWE
p284
sI284
VB0002UNON8
p285
sI285
VB008FW9A6K
p286
sI286
VB001VJZOBO
p287
sI287
VB000J6A4S8
p288
sI288
VB0002SREPY
p289
sI289
VB0002JMV06
p290
sI290
VB000EDQQCY
p291
sI291
VB0002JN2EU
p292
sI292
VB001WWPZF0
p293
sI293
VB000NK7992
p294
sI294
VB0002KKHS8
p295
sI295
VB000UD0CTQ
p296
sI296
VB002C7DSIK
p297
sI297
VB0002Z2MZ4
p298
sI298
VB00I93BOZ0
p299
sI299
VB0006JLW34
p300
sI300
VB001AWU6KQ
p301
sI301
VB004IME2ZK
p302
sI302
VB000EA5WLS
p303
sI303
VB000C848Q2
p304
sI304
VB000WEMH4G
p305
sI305
VB001CF1A7O
p306
sI306
VB0015Y6GDU
p307
sI307
VB003L358WI
p308
sI308
VB00318NR3U
p309
sI309
VB001B6N2WK
p310
sI310
VB00AMUXDLG
p311
sI311
VB001VJS2FE
p312
sI312
VB002KNP0PK
p313
sI313
VB0006Z9SQQ
p314
sI314
VB001VMNHX8
p315
sI315
VB0036E9VB6
p316
sI316
VB0000ATZD5
p317
sI317
VB000VKTULY
p318
sI318
VB003YJLAIK
p319
sI319
VB000994BU2
p320
sI320
VB0000ATZDE
p321
sI321
VB003R7M4SY
p322
sI322
VB009OBVS2K
p323
sI323
VB00AX64HGE
p324
sI324
VB00192JF9U
p325
sI325
VB000DZXIJM
p326
sI326
VB000EXSER4
p327
sI327
VB0009JKI5Y
p328
sI328
VB001TK0DSY
p329
sI329
VB001THX4B0
p330
sI330
VB002U6ELS4
p331
sI331
VB000AMBHG4
p332
sI332
VB003U7ZY9M
p333
sI333
VB002SIR91A
p334
sI334
VB000A8JLIY
p335
sI335
VB0002U1TX0
p336
sI336
VB000H961YI
p337
sI337
VB0030GJ2SW
p338
sI338
VB000AMOEGY
p339
sI339
VB000C11PYW
p340
sI340
VB004UPZXI0
p341
sI341
VB00D8DR0AO
p342
sI342
VB004HAEFS2
p343
sI343
VB000CSD6RE
p344
sI344
VB000E28C7M
p345
sI345
VB001PWFPRU
p346
sI346
VB00144I5KS
p347
sI347
VB0010DW5ZO
p348
sI348
VB0006JJ588
p349
sI349
VB000OCT7FI
p350
sI350
VB001JYBT8I
p351
sI351
VB004BWU8H8
p352
sI352
VB002OUMVSS
p353
sI353
VB000BC976K
p354
sI354
VB000F5JM0O
p355
sI355
VB002JOVUO0
p356
sI356
VB002ZTGLCK
p357
sI357
VB0015PI7A4
p358
sI358
VB0002F9YHI
p359
sI359
VB002N2SUIM
p360
sI360
VB006YU7G8E
p361
sI361
VB0009N30EQ
p362
sI362
VB00062YZZS
p363
sI363
VB005CO9FDW
p364
sI364
VB000HEBYYU
p365
sI365
VB0015POUXM
p366
sI366
VB001TAFBPY
p367
sI367
VB003QVIXYU
p368
sI368
VB0067ECS6W
p369
sI369
VB003UT6LCO
p370
sI370
VB004GFS2C8
p371
sI371
VB000E7WLJW
p372
sI372
VB000CMF4J8
p373
sI373
VB000KPU8F2
p374
sI374
VB00A8MZ910
p375
sI375
VB000YQQZCW
p376
sI376
VB000C6KMAK
p377
sI377
VB0024EC74M
p378
sI378
VB000BUQOAE
p379
sI379
VB0031P6AIW
p380
sI380
VB003WHBVDI
p381
sI381
VB000FGI6E6
p382
sI382
VB000J15THO
p383
sI383
VB005JU5UEW
p384
sI384
VB000BUTD9S
p385
sI385
VB003T7XUE4
p386
sI386
VB0027VFZE6
p387
sI387
VB001C5MEZ6
p388
sI388
VB0009I1WF0
p389
sI389
VB001GJ9K8C
p390
sI390
VB0024ECE22
p391
sI391
VB00068GEJM
p392
sI392
VB009W3KHSQ
p393
sI393
VB00AZPP0Y6
p394
sI394
VB0053O9EUA
p395
sI395
VB0002YTN4I
p396
sI396
VB000EQR990
p397
sI397
VB006R34PB4
p398
sI398
VB001VILJ8C
p399
sI399
VB00G49DVGG
p400
sI400
VB00265M9SS
p401
sI401
VB008FYKOX6
p402
sI402
VB001UMZ07A
p403
sI403
VB003PJOR5W
p404
sI404
VB005PJJ89U
p405
sI405
VB000S2QVYE
p406
sI406
VB000EDOSME
p407
sI407
VB000ALBZ6C
p408
sI408
VB001EGT3I4
p409
sI409
VB00390X6DQ
p410
sI410
VB008VLVAZE
p411
sI411
VB002J7KDZO
p412
sI412
VB00496Y4IK
p413
sI413
VB000TYOS3C
p414
sI414
VB000F285EG
p415
sI415
VB000HBIDO2
p416
sI416
VB0030D0T2S
p417
sI417
VB0002UEOPA
p418
sI418
VB001LTVCBU
p419
sI419
VB000NCOKZQ
p420
sI420
VB000CMIYE0
p421
sI421
VB00009W3G7
p422
sI422
VB00CCOBOI4
p423
sI423
VB0002UNOYM
p424
sI424
VB004JV6OMO
p425
sI425
VB000OWTI2K
p426
sI426
VB0013REXO8
p427
sI427
VB005JCY7RG
p428
sI428
VB000BRF3VS
p429
sI429
VB000BGJWA2
p430
sI430
VB0002Q81WG
p431
sI431
VB0028081GK
p432
sI432
VB001VV0318
p433
sI433
VB0002STSC6
p434
sI434
VB001VZL2LO
p435
sI435
VB00A66OAKE
p436
sI436
VB0030430KK
p437
sI437
VB0002NYDZ8
p438
sI438
VB003TPW5YM
p439
sI439
VB00AX4TWAM
p440
sI440
VB001A4EAV0
p441
sI441
VB004K23K60
p442
sI442
VB0007LVJ2A
p443
sI443
VB00AZBITXE
p444
sI444
VB003V3XA5A
p445
sI445
VB0017T3P3C
p446
sI446
VB009EHIRB4
p447
sI447
VB0002Q81W6
p448
sI448
VB0041CAC4W
p449
sI449
VB00ATXEIVU
p450
sI450
VB0000AXY62
p451
sI451
VB001H1O688
p452
sI452
VB0002SRL0C
p453
sI453
VB002L2CFR6
p454
sI454
VB005C1Y9D6
p455
sI455
VB0040U3MI8
p456
sI456
VB005ZUMLV6
p457
sI457
VB0002F9YIC
p458
sI458
VB001P29X4G
p459
sI459
VB000VKOD9S
p460
sI460
VB000C9SRD6
p461
sI461
VB008FV5R0Y
p462
sI462
VB000UK3RT6
p463
sI463
VB000ONZXPK
p464
sI464
VB003GBJ3DU
p465
sI465
VB0010DW608
p466
sI466
VB0013A0AMY
p467
sI467
VB003ZALGGO
p468
sI468
VB0034KH22M
p469
sI469
VB000ALJ4NS
p470
sI470
VB0002U1TYY
p471
sI471
VB005HWTGQU
p472
sI472
VB000S8EQFO
p473
sI473
VB000BGHVSM
p474
sI474
VB000GU3KHE
p475
sI475
VB0002SQVX0
p476
sI476
VB0010E3JUI
p477
sI477
VB00BZSE5CK
p478
sI478
VB00G25GOCA
p479
sI479
VB002MAMBDU
p480
sI480
VB000NVW1LM
p481
sI481
VB00877SL2M
p482
sI482
VB002I0GYZU
p483
sI483
VB000BUTD8Y
p484
sI484
VB003L31RHI
p485
sI485
VB002QA386A
p486
sI486
VB005EUWMU2
p487
sI487
VB000FW7V50
p488
sI488
VB004HCOE8Q
p489
sI489
VB0015Y5848
p490
sI490
VB001B5IYK6
p491
sI491
VB000EDST6K
p492
sI492
VB000B8WCBG
p493
sI493
VB000CIXOXA
p494
sI494
VB0024E6QX0
p495
sI495
VB002WIN8VQ
p496
sI496
VB005WGR22Q
p497
sI497
VB0002SQVNA
p498
sI498
VB000HDIOX0
p499
sI499
VB000R3SNJU
p500
sI500
VB0009H52BG
p501
sI501
VB0002CSQ7A
p502
sI502
VB000QFVJ5O
p503
sI503
VB0061TU2JS
p504
sI504
VB000CMHVBC
p505
sI505
VB0002SQUHW
p506
sI506
VB000JFHMVQ
p507
sI507
VB001HHP59G
p508
sI508
VB001UC72UI
p509
sI509
VB0007RDVFM
p510
sI510
VB002MQCY7C
p511
sI511
VB004A2YKWI
p512
sI512
VB0007RDVFC
p513
sI513
VB000642GAW
p514
sI514
VB002YI72TS
p515
sI515
VB000BQKBP2
p516
sI516
VB002P8EMGI
p517
sI517
VB000WJ64O0
p518
sI518
VB00407RQCY
p519
sI519
VB004JOR8GW
p520
sI520
VB000BXOGMY
p521
sI521
VB002XOXSI2
p522
sI522
VB0024E6V30
p523
sI523
VB002EBSLA4
p524
sI524
VB001A0J2JO
p525
sI525
VB002N1J5IM
p526
sI526
VB000MDY88U
p527
sI527
VB000C9WLA6
p528
sI528
VB003WDEYPE
p529
sI529
VB003TUNRGM
p530
sI530
VB0007VWLOU
p531
sI531
VB0002NUNMU
p532
sI532
VB001GMZH5E
p533
sI533
VB00AX4TWCA
p534
sI534
VB000A0CA6W
p535
sI535
VB0015Y9358
p536
sI536
VB000BO9NOO
p537
sI537
VB000MSBU9U
p538
sI538
VB000OQMHEC
p539
sI539
VB005JU5UX8
p540
sI540
VB003UXFNTW
p541
sI541
VB0018ICAMO
p542
sI542
VB007Y4BL1C
p543
sI543
VB00AYXM4DY
p544
sI544
VB001EP28DC
p545
sI545
VB007OSL3DY
p546
sI546
VB000B5QFE4
p547
sI547
VB00A1B4B58
p548
sI548
VB001CEG96C
p549
sI549
VB000C5GAQQ
p550
sI550
VB001GJ3DZS
p551
sI551
VB000EDUUL2
p552
sI552
VB000A8OW9M
p553
sI553
VB0002JJU1Y
p554
sI554
VB000BRJVIY
p555
sI555
VB004U8JH84
p556
sI556
VB003U53JYG
p557
sI557
VB0002JJU1O
p558
sI558
VB0009IBJAS
p559
sI559
VB00881EQ1C
p560
sI560
VB000H90XEW
p561
sI561
VB001SG8Z1Q
p562
sI562
VB00074Q29W
p563
sI563
VB00C5RB03W
p564
sI564
VB0016LA5O8
p565
sI565
VB0009T6EA2
p566
sI566
VB002VVIC06
p567
sI567
VB000BO4WU4
p568
sI568
VB001CAVUL0
p569
sI569
VB000PL2AZC
p570
sI570
VB003YM8YMM
p571
sI571
VB0030YWM0Y
p572
sI572
VB0009JKGJW
p573
sI573
VB0002YUQ4E
p574
sI574
VB003BJNT0K
p575
sI575
VB004HCS4PK
p576
sI576
VB000VKRQ7Y
p577
sI577
VB0002SQU8Q
p578
sI578
VB000COCTXA
p579
sI579
VB000BO8YVM
p580
sI580
VB00032K3RA
p581
sI581
VB000XECJES
p582
sI582
VB000CPAVIO
p583
sI583
VB000EQ3EC6
p584
sI584
VB004GFTC0E
p585
sI585
VB003U4T4PU
p586
sI586
VB000GPV2QA
p587
sI587
VB000BZI4JI
p588
sI588
VB009OBW23O
p589
sI589
VB00G49DUJY
p590
sI590
VB00CAKILAO
p591
sI591
VB0030B2N10
p592
sI592
VB000O80B5M
p593
sI593
VB003VCD7UE
p594
sI594
VB0010E1LYY
p595
sI595
VB0012BL8LG
p596
sI596
VB007RFDE4U
p597
sI597
VB001EOV492
p598
sI598
VB0024E6W02
p599
sI599
VB003U4P3U0
p600
sI600
VB002J858HQ
p601
sI601
VB0045K2Q9Y
p602
sI602
VB008KP7MIA
p603
sI603
VB00CPGQ2DG
p604
sI604
VB000ARTZPO
p605
sI605
VB001NZKPS8
p606
sI606
VB0092KVYGI
p607
sI607
VB000BPZ824
p608
sI608
VB002MT8S7E
p609
sI609
VB00DL6T2YK
p610
sI610
VB000KKLLFS
p611
sI611
VB000BZGKCG
p612
sI612
VB0006N61RW
p613
sI613
VB008RVJJZG
p614
sI614
VB003CG9PIC
p615
sI615
VB003WDDLTO
p616
sI616
VB001HXMG74
p617
sI617
VB000GKLWX8
p618
sI618
VB003UT822G
p619
sI619
VB000COMXI6
p620
sI620
VB00042KJQ4
p621
sI621
VB000BMWXZM
p622
sI622
VB001GJ3ECA
p623
sI623
VB007G7PUMS
p624
sI624
VB000KKHNZU
p625
sI625
VB0089GTC92
p626
sI626
VB0009IQX0E
p627
sI627
VB000BYM4VS
p628
sI628
VB009DRI1PM
p629
sI629
VB002RW244Y
p630
sI630
VB001V8RWCE
p631
sI631
VB0002KKIR8
p632
sI632
VB008H08LQU
p633
sI633
VB00155237W
p634
sI634
VB00KIAQ8VW
p635
sI635
VB0009TAOGM
p636
sI636
VB000AL6WLA
p637
sI637
VB008BWGBKC
p638
sI638
VB000FIJ7GA
p639
sI639
VB000C9Y16S
p640
sI640
VB002XLHUQG
p641
sI641
VB00BYH6C1E
p642
sI642
VB000AP8DZY
p643
sI643
VB007H8DKJG
p644
sI644
VB001CF6MUY
p645
sI645
VB001TI5IIQ
p646
sI646
VB000C5O1VW
p647
sI647
VB00029WVIS
p648
sI648
VB0013935FY
p649
sI649
VB001GJ3E2K
p650
sI650
VB008MISDEC
p651
sI651
VB0009IQZ2K
p652
sI652
VB0009IQXAE
p653
sI653
VB0009N0W60
p654
sI654
VB002YIACG8
p655
sI655
VB000RFUYQI
p656
sI656
VB000C3YTK2
p657
sI657
VB00029WVI8
p658
sI658
VB000RN4FK6
p659
sI659
VB000KEUFME
p660
sI660
VB00404WDUC
p661
sI661
VB0000UUX34
p662
sI662
VB00192KZQ2
p663
sI663
VB001N7RE44
p664
sI664
VB000ALG0KS
p665
sI665
VB000JK2D06
p666
sI666
VB0019O1BS6
p667
sI667
VB001P11SCM
p668
sI668
VB005J3BPCK
p669
sI669
VB000B8N3MS
p670
sI670
VB000S2SS3Q
p671
sI671
VB004PX8BC2
p672
sI672
VB000OZS9Y0
p673
sI673
VB000JFHNQA
p674
sI674
VB001EQJ956
p675
sI675
VB0030PWDQG
p676
sI676
VB0009JKISG
p677
sI677
VB001O7PNS2
p678
sI678
VB000RN04VU
p679
sI679
VB002ZBPX1S
p680
sI680
VB000CB6FNS
p681
sI681
VB000EDOSSI
p682
sI682
VB000WK4CS4
p683
sI683
VB001U522GO
p684
sI684
VB0000AXTUY
p685
sI685
VB004HCS4Q4
p686
sI686
VB000I04Z7Q
p687
sI687
VB003V5HFQ8
p688
sI688
VB0009VF1AY
p689
sI689
VB004XMW874
p690
sI690
VB006VFEJJQ
p691
sI691
VB00G49NYKY
p692
sI692
VB000S2ZPXW
p693
sI693
VB00C5THYIK
p694
sI694
VB000182DPG
p695
sI695
VB001UFK9NM
p696
sI696
VB005J1UK2I
p697
sI697
VB003YMBO2E
p698
sI698
VB001GH5P3S
p699
sI699
VB000E2CVI8
p700
sI700
VB0010DZZVK
p701
sI701
VB00603DSI2
p702
sI702
VB000EFCPOK
p703
sI703
VB00B7GC50Y
p704
sI704
VB001TJ1EJC
p705
sI705
VB0047RKS72
p706
sI706
VB006E3SJZA
p707
sI707
VB0002CO9L2
p708
sI708
VB000C4087Y
p709
sI709
VB000BRFQOW
p710
sI710
VB000H90XDS
p711
sI711
VB00EVY2SKG
p712
sI712
VB001NSYV58
p713
sI713
VB000NPT74C
p714
sI714
VB000C4087O
p715
sI715
VB0017OFS3C
p716
sI716
VB0012WHBSO
p717
sI717
VB000OCH4YO
p718
sI718
VB000W0TM6Q
p719
sI719
VB00192JFBI
p720
sI720
VB000EDQR4Q
p721
sI721
VB000E2CVIS
p722
sI722
VB008XB9BJY
p723
sI723
VB000EALHHG
p724
sI724
VB002DU3TTO
p725
sI725
VB0007RDVD4
p726
sI726
VB000L7JQE8
p727
sI727
VB0002SR7TC
p728
sI728
VB0009OMY92
p729
sI729
VB0015YCE5Y
p730
sI730
VB004B8GTQG
p731
sI731
VB005SB6RSU
p732
sI732
VB0002UQATS
p733
sI733
VB000IG7PMM
p734
sI734
VB009ANV81S
p735
sI735
VB004P91FCO
p736
sI736
VB0012ZITCS
p737
sI737
VB00092RESK
p738
sI738
VB001TZ4I76
p739
sI739
VB000FVDJ5M
p740
sI740
VB001DGEY1Q
p741
sI741
VB000E3EXH4
p742
sI742
VB0051PJWQW
p743
sI743
VB000E9QF06
p744
sI744
VB000MG630I
p745
sI745
VB003CJ927I
p746
sI746
VB009SDXSOA
p747
sI747
VB003UWQFKY
p748
sI748
VB002S9UYM0
p749
sI749
VB001DRLPXU
p750
sI750
VB005JU5VH8
p751
sI751
VB0009H51ZI
p752
sI752
VB001P99A2O
p753
sI753
VB002NUABUO
p754
sI754
VB0007TQWJM
p755
sI755
VB004EDF8HY
p756
sI756
VB003POL69C
p757
sI757
VB00157TGXY
p758
sI758
VB001LHVOVK
p759
sI759
VB0035AMPFK
p760
sI760
VB001UROUJO
p761
sI761
VB008QR1ANA
p762
sI762
VB0009F9UZM
p763
sI763
VB000FCRS0I
p764
sI764
VB005JU5XOO
p765
sI765
VB0002H335A
p766
sI766
VB00HJ6OBIK
p767
sI767
VB0040M30O2
p768
sI768
VB003ZE076U
p769
sI769
VB000M8PYO2
p770
sI770
VB000EDSSDY
p771
sI771
VB003VDX5D2
p772
sI772
VB002YKETS8
p773
sI773
VB000EBICMI
p774
sI774
VB002YKMCDW
p775
sI775
VB000P23HZS
p776
sI776
VB00BCH4WTA
p777
sI777
VB001AWLTX4
p778
sI778
VB001DRNNKI
p779
sI779
VB004B61B34
p780
sI780
VB002QSHIEU
p781
sI781
VB005SMUORO
p782
sI782
VB002G2261G
p783
sI783
VB002SIR8RU
p784
sI784
VB000C2ZKDS
p785
sI785
VB0006Q16YM
p786
sI786
VB003BSB7PU
p787
sI787
VB0000DYVN9
p788
sI788
VB004MEBBWG
p789
sI789
VB002MY6ZZG
p790
sI790
VB004MDXS0U
p791
sI791
VB0065FRBZ6
p792
sI792
VB005JU5W54
p793
sI793
VB000HBGHB8
p794
sI794
VB001CEG90I
p795
sI795
VB000A09MCW
p796
sI796
VB0002M9QK6
p797
sI797
VB00236XLA0
p798
sI798
VB0031I204W
p799
sI799
VB000PJCBOE
p800
sI800
VB0016C5YF2
p801
sI801
VB000OV32M8
p802
sI802
VB0006N5RW2
p803
sI803
VB0007LVJ20
p804
sI804
VB000AMLWH8
p805
sI805
VB00480FIDW
p806
sI806
VB008LPEZ6Q
p807
sI807
VB000GGOOZK
p808
sI808
VB002QGSYZ4
p809
sI809
VB0002KRABU
p810
sI810
VB001KSEIJ0
p811
sI811
VB007VJ2KEC
p812
sI812
VB004YJQE0S
p813
sI813
VB00092893O
p814
sI814
VB0015YBYCS
p815
sI815
VB00092893E
p816
sI816
VB00026Z3DQ
p817
sI817
VB000W1Z3VI
p818
sI818
VB002BN5ZT0
p819
sI819
VB0027XYKZO
p820
sI820
VB003VLBPJA
p821
sI821
VB001FAK342
p822
sI822
VB000AS3D3S
p823
sI823
VB0002Q80GS
p824
sI824
VB003V9L05G
p825
sI825
VB003ZBIYVS
p826
sI826
VB001IH8Q0A
p827
sI827
VB003ZWZ7VM
p828
sI828
VB0009JKIRC
p829
sI829
VB00449AC9C
p830
sI830
VB000EDQR50
p831
sI831
VB004N5WHE0
p832
sI832
VB000JFJLP6
p833
sI833
VB0024E6YWS
p834
sI834
VB001V8RYTA
p835
sI835
VB003YJJS2U
p836
sI836
VB000XETMW0
p837
sI837
VB001BNZGY0
p838
sI838
VB004TS1IB4
p839
sI839
VB0017K69MA
p840
sI840
VB004YMRIC8
p841
sI841
VB008XNZZ7O
p842
sI842
VB005NLCGF8
p843
sI843
VB0009IK5SK
p844
sI844
VB001MPY4ZO
p845
sI845
VB006OQ35GU
p846
sI846
VB000E4JLM0
p847
sI847
VB00746VICW
p848
sI848
VB005OL7K4E
p849
sI849
VB000CNBI1A
p850
sI850
VB000ZIZ32W
p851
sI851
VB000C6KM4G
p852
sI852
VB0020T17J2
p853
sI853
VB000BYDA8E
p854
sI854
VB007P05FBW
p855
sI855
VB000E81VN8
p856
sI856
VB000HACYNY
p857
sI857
VB003L2ZQGW
p858
sI858
VB001P1ZAH6
p859
sI859
VB007TG7HFO
p860
sI860
VB000G6M3VC
p861
sI861
VB003ZE32F8
p862
sI862
VB003A2SRUK
p863
sI863
VB00B2A271M
p864
sI864
VB006074LT8
p865
sI865
VB00AOIM2CC
p866
sI866
VB002L146OC
p867
sI867
VB000924QO0
p868
sI868
VB005JU5VUK
p869
sI869
VB0037UUNFW
p870
sI870
VB000630B1Y
p871
sI871
VB0051MYLS4
p872
sI872
VB000E9C21M
p873
sI873
VB00079V5ZI
p874
sI874
VB008U1MOM8
p875
sI875
VB0002JM8PY
p876
sI876
VB002AMAXNA
p877
sI877
VB001JT77K2
p878
sI878
VB000BZGKE4
p879
sI879
VB003UE2OWA
p880
sI880
VB001DRNNDK
p881
sI881
VB003Q54V88
p882
sI882
VB004PXWKLA
p883
sI883
VB0010E00T6
p884
sI884
VB000EDUTWM
p885
sI885
VB007BSG760
p886
sI886
VB00341MIAW
p887
sI887
VB000NCOKV0
p888
sI888
VB001EOWQY4
p889
sI889
VB0002U26QE
p890
sI890
VB006V7TBBA
p891
sI891
VB00BJCN7Z8
p892
sI892
VB007J0V7MO
p893
sI893
VB001RNOHBC
p894
sI894
VB003BZD08U
p895
sI895
VB002IEE7KU
p896
sI896
VB000LNBLTK
p897
sI897
VB00AIG9818
p898
sI898
VB0000AXU02
p899
sI899
VB0015PK3AG
p900
sI900
VB0033MEHEC
p901
sI901
VB001GJ7HCI
p902
sI902
VB008ZDYLC2
p903
sI903
VB0055PD1H4
p904
sI904
VB001TJXWH4
p905
sI905
VB008G4Y076
p906
sI906
VB00008BKX5
p907
sI907
VB0041CDPQO
p908
sI908
VB009W09HG2
p909
sI909
VB0009IQXCC
p910
sI910
VB0009IQXCM
p911
sI911
VB001MXX5D8
p912
sI912
VB007I7D66S
p913
sI913
VB000N9VF6Q
p914
sI914
VB007NLQO0O
p915
sI915
VB003EOZLEO
p916
sI916
VB001P2JONQ
p917
sI917
VB002UD0GFE
p918
sI918
VB001THRG9Q
p919
sI919
VB000HLO7QA
p920
sI920
VB000MD4YNY
p921
sI921
VB000HBNZJA
p922
sI922
VB000NMDFNY
p923
sI923
VB005Z2XA8M
p924
sI924
VB0034KH2DG
p925
sI925
VB004FSEJZA
p926
sI926
VB0013LBTDM
p927
sI927
VB003LMJP4Q
p928
sI928
VB00AIJY2ZM
p929
sI929
VB003POLA84
p930
sI930
VB007FSN2UK
p931
sI931
VB0007TR4CQ
p932
sI932
VB001QT9KO6
p933
sI933
VB0001L0DFA
p934
sI934
VB000G72UOQ
p935
sI935
VB000C36BHG
p936
sI936
VB004PILLZG
p937
sI937
VB003V3V61K
p938
sI938
VB002JSFH3G
p939
sI939
VB00B7M7BN4
p940
sI940
VB000MXW2EM
p941
sI941
VB000CB6D0S
p942
sI942
VB00068XCQU
p943
sI943
VB00075OSBK
p944
sI944
VB000GAYN3E
p945
sI945
VB004XNQLB2
p946
sI946
VB000EDUUIA
p947
sI947
VB000O80AZS
p948
sI948
VB000P7O5DG
p949
sI949
VB000C7YQ2Y
p950
sI950
VB004VN0J5S
p951
sI951
VB002RSIK4G
p952
sI952
VB000EVWDU0
p953
sI953
VB002TR6WA4
p954
sI954
VB002H9CMCQ
p955
sI955
VB002U6IL9O
p956
sI956
VB000BUOSGG
p957
sI957
VB000LMU5OS
p958
sI958
VB0002LBKG0
p959
sI959
VB000JFJLQA
p960
sI960
VB003C01FD6
p961
sI961
VB008FSQ13O
p962
sI962
VB0037V0EW8
p963
sI963
VB0032DBR9K
p964
sI964
VB00062ZIRC
p965
sI965
VB00BQYCIVI
p966
sI966
VB000BQYH6Q
p967
sI967
VB0029XJVA6
p968
sI968
VB0036VTNGC
p969
sI969
VB0034KH26I
p970
sI970
VB000BUOSG6
p971
sI971
VB0016LE80K
p972
sI972
VB004D5SUIC
p973
sI973
VB0014FKI1Q
p974
sI974
VB007OW6M0Y
p975
sI975
VB000Z0HVHA
p976
sI976
VB000P7CD44
p977
sI977
VB000C9SR90
p978
sI978
VB007B8JMZI
p979
sI979
VB000CITKCE
p980
sI980
VB001TKWRHO
p981
sI981
VB0007RDVFW
p982
sI982
VB0009IK5NU
p983
sI983
VB000EDST24
p984
sI984
VB000COC67E
p985
sI985
VB004HX1DZM
p986
sI986
VB0034KH2K4
p987
sI987
VB000CIT3N0
p988
sI988
VB003KL72E8
p989
sI989
VB002MQAX9S
p990
sI990
VB000BO0532
p991
sI991
VB000FOIJXQ
p992
sI992
VB000NHUKJG
p993
sI993
VB000M5ZXDM
p994
sI994
VB004SRRELY
p995
sI995
VB001TJ3HUG
p996
sI996
VB002ZBRYEW
p997
sI997
VB00C7OVGSW
p998
sI998
VB0033A5PPO
p999
sI999
VB001NQF3QQ
p1000
sI1000
VB0085KGOIE
p1001
sI1001
VB005RNEH5O
p1002
sI1002
VB003UT3XKC
p1003
sI1003
VB000CITK8S
p1004
sI1004
VB001GH5ORK
p1005
sI1005
VB002BVXM92
p1006
sI1006
VB003U4O414
p1007
sI1007
VB000AMMN9O
p1008
sI1008
VB00192JH4S
p1009
sI1009
VB001EOV46K
p1010
sI1010
VB00B2YE248
p1011
sI1011
VB000P6UNKQ
p1012
sI1012
VB0002NYE5M
p1013
sI1013
VB001GJ3E5C
p1014
sI1014
VB000E9TS6O
p1015
sI1015
VB000HDIP9I
p1016
sI1016
VB000XEHWRM
p1017
sI1017
VB0041TQS5M
p1018
sI1018
VB00HJ6OBUI
p1019
sI1019
VB0002NYE5W
p1020
sI1020
VB007OW6MD6
p1021
sI1021
VB001TIZZVQ
p1022
sI1022
VB000BYEMFO
p1023
sI1023
VB008427D88
p1024
sI1024
VB002UD0GGS
p1025
sI1025
VB0002F68FO
p1026
sI1026
VB008MISCLQ
p1027
sI1027
VB000HBM72Q
p1028
sI1028
VB0000AXRH5
p1029
sI1029
VB000SL4AA2
p1030
sI1030
VB00BCH4WZE
p1031
sI1031
VB00B2YHFO2
p1032
sI1032
VB000BQR8TE
p1033
sI1033
VB000KPU8MK
p1034
sI1034
VB004HCM9H4
p1035
sI1035
VB0002SQYSM
p1036
sI1036
VB000CIV716
p1037
sI1037
VB008O9DV78
p1038
sI1038
VB0006N5RYK
p1039
sI1039
VB000E5S3BY
p1040
sI1040
VB0049IFX56
p1041
sI1041
VB000BAT8TS
p1042
sI1042
VB004K23KQ0
p1043
sI1043
VB003V3TQEE
p1044
sI1044
VB00CC2Z9MS
p1045
sI1045
VB008RHBJ8K
p1046
sI1046
VB003V4T58K
p1047
sI1047
VB002QAC66I
p1048
sI1048
VB00AYCXLX2
p1049
sI1049
VB0009XQUKC
p1050
sI1050
VB00BEDNXTW
p1051
sI1051
VB000HBGI8K
p1052
sI1052
VB001EP28XW
p1053
sI1053
VB004C6OBBC
p1054
sI1054
VB004ZVXFZ2
p1055
sI1055
VB0058V9CF0
p1056
sI1056
VB0009OMYDS
p1057
sI1057
VB003EEV4HW
p1058
sI1058
VB0002Q80RW
p1059
sI1059
VB000276B2C
p1060
sI1060
VB003VZLJFG
p1061
sI1061
VB001L9KI56
p1062
sI1062
VB00029WYEY
p1063
sI1063
VB000CCMKZY
p1064
sI1064
VB0024ECD2I
p1065
sI1065
VB000CIGE9G
p1066
sI1066
VB0024ECHII
p1067
sI1067
VB00DJ5KEF4
p1068
sI1068
VB004QQLR4M
p1069
sI1069
VB008TW6KPA
p1070
sI1070
VB000BRFQLK
p1071
sI1071
VB000DINKPQ
p1072
sI1072
VB000M5YZHC
p1073
sI1073
VB000H7CKAY
p1074
sI1074
VB002E1AYKY
p1075
sI1075
VB000BG1X54
p1076
sI1076
VB000EAIERW
p1077
sI1077
VB000E2CVDI
p1078
sI1078
VB00AZBINXA
p1079
sI1079
VB0002SQZR2
p1080
sI1080
VB005SB0JJS
p1081
sI1081
VB003EP3ACS
p1082
sI1082
VB002SINBRQ
p1083
sI1083
VB000F7VKD4
p1084
sI1084
VB003TTRORQ
p1085
sI1085
VB0002LBKF6
p1086
sI1086
VB001FAGJJK
p1087
sI1087
VB00H72YE7Y
p1088
sI1088
VB003UT1V38
p1089
sI1089
VB0002KKTT0
p1090
sI1090
VB0031B4YU2
p1091
sI1091
VB0007LEG2K
p1092
sI1092
VB000C53XRK
p1093
sI1093
VB000AAMY86
p1094
sI1094
VB002G47GE6
p1095
sI1095
VB005NLQAHS
p1096
sI1096
VB000COO1UO
p1097
sI1097
VB00ABYVT64
p1098
sI1098
VB000BO8Z9I
p1099
sI1099
VB000CPI5XM
p1100
sI1100
VB0041DZ48K
p1101
sI1101
VB00192JH5W
p1102
sI1102
VB001EOV45G
p1103
sI1103
VB0002KKIXC
p1104
sI1104
VB005ASY23I
p1105
sI1105
VB000AOMQ80
p1106
sI1106
VB001KO84I0
p1107
sI1107
VB000N3W8J0
p1108
sI1108
VB000637TE6
p1109
sI1109
VB000CMDPLM
p1110
sI1110
VB0042KHPJS
p1111
sI1111
VB0002SQU9K
p1112
sI1112
VB000C30J1U
p1113
sI1113
VB000ARPVOI
p1114
sI1114
VB000VKTUD2
p1115
sI1115
VB000FQBWCY
p1116
sI1116
VB0089LSMSE
p1117
sI1117
VB00D8XCMMA
p1118
sI1118
VB00COYNZJ8
p1119
sI1119
VB000HZA2LA
p1120
sI1120
VB000CEE62W
p1121
sI1121
VB000F3RYGA
p1122
sI1122
VB001TE0IMG
p1123
sI1123
VB000C5I6H2
p1124
sI1124
VB001DKM3SI
p1125
sI1125
VB000DN7T3A
p1126
sI1126
VB0006GF5SK
p1127
sI1127
VB001LC73GU
p1128
sI1128
VB00390BS7C
p1129
sI1129
VB000R964TA
p1130
sI1130
VB0024E6UE0
p1131
sI1131
VB003S2E4UE
p1132
sI1132
VB003VXRPL0
p1133
sI1133
VB0003I92R6
p1134
sI1134
VB003U4RS1M
p1135
sI1135
VB0012FKF9S
p1136
sI1136
VB003V3PZOY
p1137
sI1137
VB0018YCRIU
p1138
sI1138
VB0031XXW4O
p1139
sI1139
VB000RFUF12
p1140
sI1140
VB009YKQR2C
p1141
sI1141
VB001EAWNVY
p1142
sI1142
VB002MYLB1Y
p1143
sI1143
VB001UROU08
p1144
sI1144
VB0024E6V9E
p1145
sI1145
VB0062BHOOG
p1146
sI1146
VB0009YDQE4
p1147
sI1147
VB000AAJTXY
p1148
sI1148
VB0002UQAY8
p1149
sI1149
VB000SKYL9I
p1150
sI1150
VB0002UEMZ2
p1151
sI1151
VB0051D3MP6
p1152
sI1152
VB001AJH1HK
p1153
sI1153
VB0014FGS60
p1154
sI1154
VB0006SH4NC
p1155
sI1155
VB000M5UD1E
p1156
sI1156
VB0033QNZZ0
p1157
sI1157
VB003TTL0TE
p1158
sI1158
VB0002SR4PY
p1159
sI1159
VB00029WYDU
p1160
sI1160
VB000BGK22E
p1161
sI1161
VB000CMHKRC
p1162
sI1162
VB0000AY3X0
p1163
sI1163
VB00029WYVW
p1164
sI1164
VB000AMBOX0
p1165
sI1165
VB0067DNSUI
p1166
sI1166
VB009409K0I
p1167
sI1167
VB007ECFURK
p1168
sI1168
VB00AAOOQJC
p1169
sI1169
VB0020K0DJG
p1170
sI1170
VB0042KL7OM
p1171
sI1171
VB000ND0WB6
p1172
sI1172
VB000BVRZ74
p1173
sI1173
VB0013VT5N8
p1174
sI1174
VB0009IQZQG
p1175
sI1175
VB000BN3A4Y
p1176
sI1176
VB005C43YHU
p1177
sI1177
VB0012TYX9W
p1178
sI1178
VB000YMP1SA
p1179
sI1179
VB0002SR6XE
p1180
sI1180
VB002ZBPXGS
p1181
sI1181
VB000IG5QPK
p1182
sI1182
VB004QO9F0W
p1183
sI1183
VB0041EBSX4
p1184
sI1184
VB005M0LWXW
p1185
sI1185
VB001UHQXQ2
p1186
sI1186
VB000RN04RO
p1187
sI1187
VB003N9AT5G
p1188
sI1188
VB0002I94CK
p1189
sI1189
VB0024GIVZ4
p1190
sI1190
VB0076M8TVM
p1191
sI1191
VB007VJ2K9M
p1192
sI1192
VB0088CNNGK
p1193
sI1193
VB00CNYXEA4
p1194
sI1194
VB0039HD4RM
p1195
sI1195
VB0014Y82UQ
p1196
sI1196
VB008YFSWS0
p1197
sI1197
VB003DKKN7Y
p1198
sI1198
VB003IS3HV0
p1199
sI1199
VB009OBW5S6
p1200
sI1200
VB005CHT4W6
p1201
sI1201
VB000BNYMX2
p1202
sI1202
VB0034KH2F4
p1203
sI1203
VB001PN88NC
p1204
sI1204
VB000DN7Q3S
p1205
sI1205
VB003L35EWM
p1206
sI1206
VB000Q65AY4
p1207
sI1207
VB001THV9D0
p1208
sI1208
VB0013RGQW0
p1209
sI1209
VB004C65DYQ
p1210
sI1210
VB000OUW78O
p1211
sI1211
VB000PGEMQM
p1212
sI1212
VB0017OANWI
p1213
sI1213
VB003EP52BU
p1214
sI1214
VB000BQYA7W
p1215
sI1215
VB000B6JJUK
p1216
sI1216
VB0002Z9O8C
p1217
sI1217
VB001GN1GLM
p1218
sI1218
VB002LNI8GW
p1219
sI1219
VB0016LG0CY
p1220
sI1220
VB003CEFJ2U
p1221
sI1221
VB0035XGPNA
p1222
sI1222
VB000CO9FF0
p1223
sI1223
VB001JT5JVQ
p1224
sI1224
VB002X6VXL4
p1225
sI1225
VB003CEFJ2A
p1226
sI1226
VB00032KBFE
p1227
sI1227
VB00009RAX7
p1228
sI1228
VB0006IX87S
p1229
sI1229
VB005FI5BBA
p1230
sI1230
VB001O0CC1U
p1231
sI1231
VB000C9WJ3A
p1232
sI1232
VB000C5YCZ2
p1233
sI1233
VB003VAYJAS
p1234
sI1234
VB001Q8DMA0
p1235
sI1235
VB00AR9G6XO
p1236
sI1236
VB000R3WQPM
p1237
sI1237
VB00042JSNY
p1238
sI1238
VB000W0KTKY
p1239
sI1239
VB000VKTUE6
p1240
sI1240
VB003L36UGQ
p1241
sI1241
VB00ATXEPQI
p1242
sI1242
VB00480BWBE
p1243
sI1243
VB001G6PNRC
p1244
sI1244
VB0002Z9KE0
p1245
sI1245
VB0002SRCK6
p1246
sI1246
VB0046402MW
p1247
sI1247
VB0002SRCKG
p1248
sI1248
VB000ET9SB4
p1249
sI1249
VB001LHXTO0
p1250
sI1250
VB001KS6GIG
p1251
sI1251
VB001XOVIQM
p1252
sI1252
VB000IE0YIQ
p1253
sI1253
VB001UGJPXQ
p1254
sI1254
VB002UMC1HQ
p1255
sI1255
VB000CQQKGU
p1256
sI1256
VB0023UX6T2
p1257
sI1257
VB0028PJ10K
p1258
sI1258
VB002DZJQ0A
p1259
sI1259
VB0000AXNMO
p1260
sI1260
VB003L2ZVRG
p1261
sI1261
VB00G49NYT0
p1262
sI1262
VB000P17NXQ
p1263
sI1263
VB000SOFE86
p1264
sI1264
VB006EGAIII
p1265
sI1265
VB00A6AS6LY
p1266
sI1266
VB000CB94JU
p1267
sI1267
VB002UD0GIG
p1268
sI1268
VB006T5LQGW
p1269
sI1269
VB0002UQAM0
p1270
sI1270
VB003POIYJM
p1271
sI1271
VB000HBNVSK
p1272
sI1272
VB0002RNSKK
p1273
sI1273
VB000BYGIR4
p1274
sI1274
VB001V8U12M
p1275
sI1275
VB0002UQAXY
p1276
sI1276
VB003VASRCE
p1277
sI1277
VB009OBW28E
p1278
sI1278
VB000I4JPZE
p1279
sI1279
VB0002SPC2G
p1280
sI1280
VB004Q6N5O2
p1281
sI1281
VB0009IQX90
p1282
sI1282
VB000C9PFJK
p1283
sI1283
VB008MISDH4
p1284
sI1284
VB00AN9W3TE
p1285
sI1285
VB000YGO6IW
p1286
sI1286
VB0002KM5L0
p1287
sI1287
VB0009IQZFM
p1288
sI1288
VB003ZAGPGU
p1289
sI1289
VB001O7LX6S
p1290
sI1290
VB00075XCCG
p1291
sI1291
VB0002UEN1A
p1292
sI1292
VB000KC41FS
p1293
sI1293
VB000FRLO9Y
p1294
sI1294
VB0025272PW
p1295
sI1295
VB00CPGQ1GO
p1296
sI1296
VB001O7PNNM
p1297
sI1297
VB0006ODWE6
p1298
sI1298
VB000EDUUJO
p1299
sI1299
VB00CMR79H6
p1300
sI1300
VB0088BX0IM
p1301
sI1301
VB004LSTQWU
p1302
sI1302
VB0036GK6T0
p1303
sI1303
VB001CEJH3Y
p1304
sI1304
VB004NFTOLY
p1305
sI1305
VB00480J4JG
p1306
sI1306
VB004RCUTFI
p1307
sI1307
VB000EDQQK6
p1308
sI1308
VB000M8R0QM
p1309
sI1309
VB001GC2LVM
p1310
sI1310
VB006EGAIJ2
p1311
sI1311
VB001PWA0IO
p1312
sI1312
VB00008RW9V
p1313
sI1313
VB00008RW9U
p1314
sI1314
VB0002MA3P8
p1315
sI1315
VB00FRZPN64
p1316
sI1316
VB0070Y341G
p1317
sI1317
VB002JTWRN8
p1318
sI1318
VB0011O4WCG
p1319
sI1319
VB001FAM322
p1320
sI1320
VB000BQ1RCI
p1321
sI1321
VB004YLKK5Q
p1322
sI1322
VB002OR4242
p1323
sI1323
VB0002SR8AK
p1324
sI1324
VB00063X7KG
p1325
sI1325
VB001CB0358
p1326
sI1326
VB006QH9C5A
p1327
sI1327
VB000DLBIGG
p1328
sI1328
VB0034KH29U
p1329
sI1329
VB000H6P55W
p1330
sI1330
VB0052WC1M6
p1331
sI1331
VB000H6QWWC
p1332
sI1332
VB000BXKYYI
p1333
sI1333
VB000GX9FSY
p1334
sI1334
VB000AP57OO
p1335
sI1335
VB00554PNL2
p1336
sI1336
VB0000AZ9KS
p1337
sI1337
VB000C5WBC8
p1338
sI1338
VB001DKQZ9Q
p1339
sI1339
VB001O7PNXC
p1340
sI1340
VB006G14FK8
p1341
sI1341
VB0036ULEV0
p1342
sI1342
VB00080QHMM
p1343
sI1343
VB003CG9QFY
p1344
sI1344
VB000VKTUJQ
p1345
sI1345
VB003ZAGI9E
p1346
sI1346
VB000BUU5UO
p1347
sI1347
VB0008F68MG
p1348
sI1348
VB000TKHMWK
p1349
sI1349
VB0014419V0
p1350
sI1350
VB000VKTUJG
p1351
sI1351
VB006K8VIAM
p1352
sI1352
VB008FIH17Y
p1353
sI1353
VB000UOBIZC
p1354
sI1354
VB001CEZSZK
p1355
sI1355
VB00042KGWG
p1356
sI1356
VB00B1VBQRS
p1357
sI1357
VB0002Z9L8K
p1358
sI1358
VB000221M94
p1359
sI1359
VB000UVUAFO
p1360
sI1360
VB000CIPUR8
p1361
sI1361
VB009OBW29S
p1362
sI1362
VB00FDQPCR2
p1363
sI1363
VB000MYXFHE
p1364
sI1364
VB0007M1ZGE
p1365
sI1365
VB000VKODGG
p1366
sI1366
VB005VFWOOE
p1367
sI1367
VB000RXNLK6
p1368
sI1368
VB0000AXPDU
p1369
sI1369
VB002KCWWFC
p1370
sI1370
VB000FW4LT4
p1371
sI1371
VB000BP7M8W
p1372
sI1372
VB0007RDVH0
p1373
sI1373
VB000CAINRK
p1374
sI1374
VB0043GCVUY
p1375
sI1375
VB005JU5UMO
p1376
sI1376
VB00029WY9Y
p1377
sI1377
VB000HBNTX2
p1378
sI1378
VB000CPI5ZK
p1379
sI1379
VB0051MYL8E
p1380
sI1380
VB001TK7CYM
p1381
sI1381
VB0051SUMJA
p1382
sI1382
VB000EBICHI
p1383
sI1383
VB0009V1WS4
p1384
sI1384
VB006N95RGO
p1385
sI1385
VB000EJQJ1G
p1386
sI1386
VB000C3XD90
p1387
sI1387
VB0087FSA0C
p1388
sI1388
VB000EDOT8C
p1389
sI1389
VB0006V0LNY
p1390
sI1390
VB000BKC25K
p1391
sI1391
VB000EDOT82
p1392
sI1392
VB0007QGT1G
p1393
sI1393
VB000C3XD9U
p1394
sI1394
VB0031I20EC
p1395
sI1395
VB0028JW4PU
p1396
sI1396
VB003DNJ728
p1397
sI1397
VB00522PH36
p1398
sI1398
VB0002JMAKW
p1399
sI1399
VB000C3XD9K
p1400
sI1400
VB009FUF6DM
p1401
sI1401
VB002DZT772
p1402
sI1402
VB001TI1F5Q
p1403
sI1403
VB007CVSBL0
p1404
sI1404
VB000L9QRE8
p1405
sI1405
VB00002243X
p1406
sI1406
VB000GZL29M
p1407
sI1407
VB006C86G4S
p1408
sI1408
VB0009IQX6I
p1409
sI1409
VB00826N5JW
p1410
sI1410
VB0013LDM46
p1411
sI1411
VB002G244UM
p1412
sI1412
VB000CPI5Z0
p1413
sI1413
VB0009IQXG8
p1414
sI1414
VB000BPLNXC
p1415
sI1415
VB000AL2RI2
p1416
sI1416
VB0024E6QOO
p1417
sI1417
VB001C6GQPY
p1418
sI1418
VB001V8PRAS
p1419
sI1419
VB004Q83TGO
p1420
sI1420
VB000CPCBEQ
p1421
sI1421
VB0006IX698
p1422
sI1422
VB00650NY6G
p1423
sI1423
VB000BRGAJ2
p1424
sI1424
VB001RBQF4G
p1425
sI1425
VB000CQOIVO
p1426
sI1426
VB0002TPVXA
p1427
sI1427
VB001GJ3E8Y
p1428
sI1428
VB0009U7Y2I
p1429
sI1429
VB000BQWQ0A
p1430
sI1430
VB000CQOIVE
p1431
sI1431
VB000SBCHCA
p1432
sI1432
VB00029J2GW
p1433
sI1433
VB00466V9AY
p1434
sI1434
VB00029KC2U
p1435
sI1435
VB00029KC2K
p1436
sI1436
VB000NSMXPY
p1437
sI1437
VB000AMXQDG
p1438
sI1438
VB00480FIMI
p1439
sI1439
VB000KL0HX4
p1440
sI1440
VB007KTINWQ
p1441
sI1441
VB0007LZI8G
p1442
sI1442
VB000SKY3GO
p1443
sI1443
VB008PN5JAU
p1444
sI1444
VB002ZBY9HW
p1445
sI1445
VB000UK1WYS
p1446
sI1446
VB000V5SP92
p1447
sI1447
VB000TZ7MGQ
p1448
sI1448
VB0006O1ICE
p1449
sI1449
VB00094I1SA
p1450
sI1450
VB000CPCBEG
p1451
sI1451
VB0002SRH7O
p1452
sI1452
VB005C2ACBI
p1453
sI1453
VB002HQTOU2
p1454
sI1454
VB00480FHG0
p1455
sI1455
VB00445L290
p1456
sI1456
VB000EDUTR2
p1457
sI1457
VB000BPSW7C
p1458
sI1458
VB000EH2SPO
p1459
sI1459
VB000VL6AHU
p1460
sI1460
VB000AL8VD2
p1461
sI1461
VB000J19XSA
p1462
sI1462
VB003IOKPLO
p1463
sI1463
VB003WGMHUK
p1464
sI1464
VB004ZF1MWG
p1465
sI1465
VB000HM579K
p1466
sI1466
VB001O0AMZS
p1467
sI1467
VB000UODGIY
p1468
sI1468
VB00198GE8Y
p1469
sI1469
VB0031GTXQW
p1470
sI1470
VB0087NAWYQ
p1471
sI1471
VB002ZBWKAU
p1472
sI1472
VB002N4GFIW
p1473
sI1473
VB0028ZKMM6
p1474
sI1474
VB00029WT08
p1475
sI1475
VB003YJJHI0
p1476
sI1476
VB0009IK6TI
p1477
sI1477
VB005R3SSQ8
p1478
sI1478
VB003O95MT8
p1479
sI1479
VB002M1SQ24
p1480
sI1480
VB00BSKYM82
p1481
sI1481
VB000NKCIKM
p1482
sI1482
VB000WN5F96
p1483
sI1483
VB002J7VX4Y
p1484
sI1484
VB000XPI5QS
p1485
sI1485
VB00138FAMQ
p1486
sI1486
VB009ES3F0Q
p1487
sI1487
VB0006IX850
p1488
sI1488
VB001E5DLY2
p1489
sI1489
VB000M8IF1Q
p1490
sI1490
VB00469HOOG
p1491
sI1491
VB008MISBP8
p1492
sI1492
VB0012ZEZ8A
p1493
sI1493
VB0007OWD2M
p1494
sI1494
VB003UM42J0
p1495
sI1495
VB000GU0MMU
p1496
sI1496
VB000BNXOP4
p1497
sI1497
VB0024E6ZRW
p1498
sI1498
VB0007M30AI
p1499
sI1499
VB002VVC4TG
p1500
sI1500
VB0015PI4PC
p1501
sI1501
VB009FREAGO
p1502
sI1502
VB0013RGQQQ
p1503
sI1503
VB002BHRXJ6
p1504
sI1504
VB001UJB96E
p1505
sI1505
VB00603DSGO
p1506
sI1506
VB000WK4EC8
p1507
sI1507
VB000CPI6VI
p1508
sI1508
VB000NCS7GE
p1509
sI1509
VB006A49KJC
p1510
sI1510
VB005JU5YCU
p1511
sI1511
VB000MXZHUI
p1512
sI1512
VB000E8T83S
p1513
sI1513
VB000FPYW4K
p1514
sI1514
VB0002MA03S
p1515
sI1515
VB005ETCIO8
p1516
sI1516
VB00435TVD0
p1517
sI1517
VB002G29LLE
p1518
sI1518
VB003V3RVWI
p1519
sI1519
VB0058BQQUY
p1520
sI1520
VB00842A7F4
p1521
sI1521
VB001DRP9G4
p1522
sI1522
VB00387A6TC
p1523
sI1523
VB003CH3Z8W
p1524
sI1524
VB0009H51MG
p1525
sI1525
VB0009IK81E
p1526
sI1526
VB00020CATC
p1527
sI1527
VB000I66JEM
p1528
sI1528
VB0013HJDOI
p1529
sI1529
VB0002JMUZW
p1530
sI1530
VB000VSY4HG
p1531
sI1531
VB000JFLSL6
p1532
sI1532
VB002EBIRGM
p1533
sI1533
VB001LRG3IY
p1534
sI1534
VB0002MSY90
p1535
sI1535
VB0003041WK
p1536
sI1536
VB0029T0S70
p1537
sI1537
VB0006IX68O
p1538
sI1538
VB000BUQOFO
p1539
sI1539
VB0045UY8I6
p1540
sI1540
VB00029WRJQ
p1541
sI1541
VB000OAUAJM
p1542
sI1542
VB0015DQ81G
p1543
sI1543
VB0050SFZBG
p1544
sI1544
VB004A2WXWW
p1545
sI1545
VB00029XGIM
p1546
sI1546
VB000F2EPFY
p1547
sI1547
VB005EKY1EM
p1548
sI1548
VB003A8D6YG
p1549
sI1549
VB0009IQXFO
p1550
sI1550
VB000MX2ORM
p1551
sI1551
VB004UQR1UM
p1552
sI1552
VB0002VAZA2
p1553
sI1553
VB006NZTZLQ
p1554
sI1554
VB000MD4YKM
p1555
sI1555
VB001GH5PWY
p1556
sI1556
VB005KDOA9Y
p1557
sI1557
VB000BAT9VK
p1558
sI1558
VB000C13R2A
p1559
sI1559
VB005EJGSQ2
p1560
sI1560
VB006R2RZOY
p1561
sI1561
VB000FW2NU8
p1562
sI1562
VB000BZG29W
p1563
sI1563
VB001NZFCRW
p1564
sI1564
VB00EDWF1BE
p1565
sI1565
VB00067BVDC
p1566
sI1566
VB0007WTE08
p1567
sI1567
VB000EDOT9Q
p1568
sI1568
VB005G7SBY4
p1569
sI1569
VB003YCEMUA
p1570
sI1570
VB000760FXE
p1571
sI1571
VB000A0CAJE
p1572
sI1572
VB00537FR08
p1573
sI1573
VB009OBW23Y
p1574
sI1574
VB00FJXKE5E
p1575
sI1575
VB000EVYGZA
p1576
sI1576
VB000EJS9IM
p1577
sI1577
VB001HXZT14
p1578
sI1578
VB008VLVDII
p1579
sI1579
VB001V8UKBO
p1580
sI1580
VB001OIRUKK
p1581
sI1581
VB0035UDHZ2
p1582
sI1582
VB002A956Z8
p1583
sI1583
VB000ALBS0K
p1584
sI1584
VB000NCOKQK
p1585
sI1585
VB002BELP3Y
p1586
sI1586
VB000X9EGFS
p1587
sI1587
VB003OXUPOQ
p1588
sI1588
VB000NBVFN2
p1589
sI1589
VB003BZD03K
p1590
sI1590
VB0000AY9W6
p1591
sI1591
VB00042KQ58
p1592
sI1592
VB000643336
p1593
sI1593
VB002UCYRZU
p1594
sI1594
VB006JG5BLM
p1595
sI1595
VB004BXH6GI
p1596
sI1596
VB0006IX7Y2
p1597
sI1597
VB00F5LWJBC
p1598
sI1598
VB000EDQR3W
p1599
sI1599
VB000CB7DG6
p1600
sI1600
VB00042K37O
p1601
sI1601
VB00802EPMO
p1602
sI1602
VB000FFY8VC
p1603
sI1603
VB000EDUUFS
p1604
sI1604
VB0015PN010
p1605
sI1605
VB001Q8IXW2
p1606
sI1606
VB000VJR3GO
p1607
sI1607
VB000BGHYJS
p1608
sI1608
VB000CPCBF0
p1609
sI1609
VB000UJG0LE
p1610
sI1610
VB0002SR4Q8
p1611
sI1611
VB0002U1TVW
p1612
sI1612
VB007PLZGO2
p1613
sI1613
VB0089LSFJ0
p1614
sI1614
VB0034KH2IQ
p1615
sI1615
VB001445IZ8
p1616
sI1616
VB001KQB5WA
p1617
sI1617
VB002JH7PEQ
p1618
sI1618
VB001DZFZPG
p1619
sI1619
VB00AFBXQNC
p1620
sI1620
VB000C427MI
p1621
sI1621
VB0006MRQXG
p1622
sI1622
VB000BGHYDO
p1623
sI1623
VB0002STS2Q
p1624
sI1624
VB001U2D6OO
p1625
sI1625
VB006FUT09G
p1626
sI1626
VB0006IX7WY
p1627
sI1627
VB00167R1SA
p1628
sI1628
VB0002V9IFU
p1629
sI1629
VB000CIPHT4
p1630
sI1630
VB0007D5DZC
p1631
sI1631
VB00GG9FB8U
p1632
sI1632
VB00020CAUG
p1633
sI1633
VB000ACM0T2
p1634
sI1634
VB00C7OVGTG
p1635
sI1635
VB004HCOE7W
p1636
sI1636
VB001D5HP40
p1637
sI1637
VB003OAES8I
p1638
sI1638
VB00D010TDY
p1639
sI1639
VB000NJ6EZ8
p1640
sI1640
VB00FJDL0J8
p1641
sI1641
VB0009VIQ1A
p1642
sI1642
VB001FAI8GM
p1643
sI1643
VB00ABYVU1I
p1644
sI1644
VB004HCOE72
p1645
sI1645
VB000E8XFOQ
p1646
sI1646
VB001D9E41I
p1647
sI1647
VB001CJHU9W
p1648
sI1648
VB006R170LI
p1649
sI1649
VB005JU5ZKG
p1650
sI1650
VB004L035UW
p1651
sI1651
VB000FGE9ME
p1652
sI1652
VB00480GZ6G
p1653
sI1653
VB00JGP8I1S
p1654
sI1654
VB001EP29AY
p1655
sI1655
VB00267PZUK
p1656
sI1656
VB000WK3P46
p1657
sI1657
VB000B8JUNY
p1658
sI1658
VB004D5Q296
p1659
sI1659
VB00H72YG9U
p1660
sI1660
VB0007QGT34
p1661
sI1661
VB0006MQIY4
p1662
sI1662
VB000IIFQ26
p1663
sI1663
VB001C6JCU0
p1664
sI1664
VB000IZ2CIK
p1665
sI1665
VB004UQQT0A
p1666
sI1666
VB003P64XU4
p1667
sI1667
VB0002SQYV4
p1668
sI1668
VB0081OSRQQ
p1669
sI1669
VB000FQ7L8I
p1670
sI1670
VB0047RV8WG
p1671
sI1671
VB0066K529W
p1672
sI1672
VB001THXG7C
p1673
sI1673
VB002NG7R2S
p1674
sI1674
VB002OUMVWY
p1675
sI1675
VB009UKUURO
p1676
sI1676
VB000RGQ4Q6
p1677
sI1677
VB004VB5JDW
p1678
sI1678
VB0010DZZQA
p1679
sI1679
VB0012VWUI6
p1680
sI1680
VB001F85OUM
p1681
sI1681
VB000CIJ308
p1682
sI1682
VB004D4URV6
p1683
sI1683
VB0007XTGCI
p1684
sI1684
VB001GH5PX8
p1685
sI1685
VB000C3XDB8
p1686
sI1686
VB0013916XW
p1687
sI1687
VB003CGDNYE
p1688
sI1688
VB004B7YXOM
p1689
sI1689
VB000E3BVSI
p1690
sI1690
VB0009OMYAQ
p1691
sI1691
VB006FUT0CS
p1692
sI1692
VB0007M1FNC
p1693
sI1693
VB001BB4LBG
p1694
sI1694
VB0008FUH46
p1695
sI1695
VB000B68V6I
p1696
sI1696
VB005NXMFW0
p1697
sI1697
VB00020CB2S
p1698
sI1698
VB000C5CEKC
p1699
sI1699
VB004UQR08K
p1700
sI1700
VB000CQOIT6
p1701
sI1701
VB00120H7XK
p1702
sI1702
VB003EQ9QAW
p1703
sI1703
VB000BUQOEU
p1704
sI1704
VB000HBM5S2
p1705
sI1705
VB00029WRKU
p1706
sI1706
VB001550DVU
p1707
sI1707
VB008CVPE8C
p1708
sI1708
VB000BQW5LK
p1709
sI1709
VB000CD6GLM
p1710
sI1710
VB001JT7B3A
p1711
sI1711
VB00BDEP9S0
p1712
sI1712
VB001QIYAQ0
p1713
sI1713
VB0009OMYA6
p1714
sI1714
VB0002MADZ8
p1715
sI1715
VB000IYDEOC
p1716
sI1716
VB000C9SJUC
p1717
sI1717
VB0013JVZ7O
p1718
sI1718
VB0057ZQJ12
p1719
sI1719
VB006A49J02
p1720
sI1720
VB000BYELQY
p1721
sI1721
VB002UX1T78
p1722
sI1722
VB008BE02GO
p1723
sI1723
VB000E8V9RG
p1724
sI1724
VB00495UQT2
p1725
sI1725
VB000WFARHE
p1726
sI1726
VB000Q86IP2
p1727
sI1727
VB001QIUGVI
p1728
sI1728
VB000RXKR6M
p1729
sI1729
VB008VJ9URQ
p1730
sI1730
VB0006IX7TW
p1731
sI1731
VB004LSJ0QW
p1732
sI1732
VB0033A5OQO
p1733
sI1733
VB00029KA6S
p1734
sI1734
VB003UX3T34
p1735
sI1735
VB00429NKWK
p1736
sI1736
VB000CODGYQ
p1737
sI1737
VB0018PSASU
p1738
sI1738
VB002RWK9N2
p1739
sI1739
VB003FBV8ZW
p1740
sI1740
VB00EVY344K
p1741
sI1741
VB002QMV70M
p1742
sI1742
VB005UWD2J4
p1743
sI1743
VB0002UEOLO
p1744
sI1744
VB000CINV88
p1745
sI1745
VB0009U65G4
p1746
sI1746
VB0046I3I8I
p1747
sI1747
VB000BGHTK2
p1748
sI1748
VB000AM8BN6
p1749
sI1749
VB000IZSB2Q
p1750
sI1750
VB000FR5XQE
p1751
sI1751
VB005RNGL9O
p1752
sI1752
VB002PYBZJO
p1753
sI1753
VB0047ROXOG
p1754
sI1754
VB002O95M3K
p1755
sI1755
VB007B86Z94
p1756
sI1756
VB000I14RY6
p1757
sI1757
VB00407WNE0
p1758
sI1758
VB002M589TA
p1759
sI1759
VB0002STSQM
p1760
sI1760
VB001GH1PU0
p1761
sI1761
VB004Y9YIU6
p1762
sI1762
VB000CIPHUI
p1763
sI1763
VB001GH1PUU
p1764
sI1764
VB0094V61V8
p1765
sI1765
VB009D3E36W
p1766
sI1766
VB002DU3S9A
p1767
sI1767
VB002OUIXU8
p1768
sI1768
VB000NPR33O
p1769
sI1769
VB000COMX3Q
p1770
sI1770
VB003G0KCCM
p1771
sI1771
VB00150T13G
p1772
sI1772
VB003CMIH2Q
p1773
sI1773
VB001JT98S6
p1774
sI1774
VB000CD6HN4
p1775
sI1775
VB0065J3368
p1776
sI1776
VB007JSGR9Y
p1777
sI1777
VB008PXBAXK
p1778
sI1778
VB001O1X65A
p1779
sI1779
VB001SIHVDM
p1780
sI1780
VB000C2WI7O
p1781
sI1781
VB0028JQYSS
p1782
sI1782
VB0035CIFW0
p1783
sI1783
VB0009V1WTS
p1784
sI1784
VB000SM6OD2
p1785
sI1785
VB000E8T81A
p1786
sI1786
VB00FSIN0U6
p1787
sI1787
VB001KS2PXQ
p1788
sI1788
VB000OC3Q2I
p1789
sI1789
VB000E8T81U
p1790
sI1790
VB0010DZZPG
p1791
sI1791
VB001AIZ5HY
p1792
sI1792
VB000FKKOK6
p1793
sI1793
VB0015KROXU
p1794
sI1794
VB001O074JU
p1795
sI1795
VB00139YMUQ
p1796
sI1796
VB000UTQUAK
p1797
sI1797
VB0002Z2MKO
p1798
sI1798
VB000EH4V18
p1799
sI1799
VB006N95R14
p1800
sI1800
VB004C443R6
p1801
sI1801
VB00020CAVA
p1802
sI1802
VB000B8JUAW
p1803
sI1803
VB000LQB24G
p1804
sI1804
VB006R0XYGY
p1805
sI1805
VB0007QGT20
p1806
sI1806
VB00280BL9O
p1807
sI1807
VB000E8T810
p1808
sI1808
VB001THVNCM
p1809
sI1809
VB00265FXTA
p1810
sI1810
VB000MS9VZK
p1811
sI1811
VB0059HJFU0
p1812
sI1812
VB006X8BATI
p1813
sI1813
VB0002SQYUA
p1814
sI1814
VB00BTGSIA8
p1815
sI1815
VB0002NYE3O
p1816
sI1816
VB000WNED08
p1817
sI1817
VB0000AY60S
p1818
sI1818
VB000E28EG6
p1819
sI1819
VB000XQ9MGE
p1820
sI1820
VB001KS0M5E
p1821
sI1821
VB003TU662Y
p1822
sI1822
VB0009IQXXG
p1823
sI1823
VB0010DY4J4
p1824
sI1824
VB002969BQW
p1825
sI1825
VB000C9TAUA
p1826
sI1826
VB005DUMADC
p1827
sI1827
VB000KYUQ2S
p1828
sI1828
VB0006305RY
p1829
sI1829
VB002J7VWWC
p1830
sI1830
VB001DKO3X6
p1831
sI1831
VB0002UENJ2
p1832
sI1832
VB002WQHY9K
p1833
sI1833
VB004VBA4R8
p1834
sI1834
VB004EI6A8K
p1835
s.